; Function Attrs: nounwind uwtable
define noalias nonnull ptr @l_Lean_moduleNameOfFileName___lambda__2(ptr noundef %0, ptr noundef %1, ptr readnone captures(none) %2, ptr noundef %3) local_unnamed_addr #0 {
  %5 = ptrtoint ptr %0 to i64
  %6 = and i64 %5, 1
  %.not = icmp eq i64 %6, 0
  br i1 %.not, label %7, label %lean_inc.exit

7:                                                ; preds = %4
  %.val.i = load i32, ptr %0, align 4, !tbaa !10
  %8 = icmp sgt i32 %.val.i, 0
  br i1 %8, label %9, label %11, !prof !13

9:                                                ; preds = %7
  %10 = add nuw i32 %.val.i, 1
  store i32 %10, ptr %0, align 4, !tbaa !10
  br label %lean_inc.exit

11:                                               ; preds = %7
  %.not.i30 = icmp eq i32 %.val.i, 0
  br i1 %.not.i30, label %lean_inc.exit, label %12

12:                                               ; preds = %11
  tail call void @lean_inc_ref_cold(ptr noundef nonnull %0) #4
  br label %lean_inc.exit

lean_inc.exit:                                    ; preds = %12, %11, %9, %4
  %13 = tail call ptr @l_System_FilePath_normalize(ptr noundef %0) #4
  %14 = tail call zeroext i8 @l_String_isPrefixOf(ptr noundef %1, ptr noundef %13) #4
  %15 = ptrtoint ptr %13 to i64
  %16 = and i64 %15, 1
  %.not32 = icmp eq i64 %16, 0
  br i1 %.not32, label %17, label %lean_dec.exit27

17:                                               ; preds = %lean_inc.exit
  %18 = load i32, ptr %13, align 4, !tbaa !10
  %19 = icmp sgt i32 %18, 1
  br i1 %19, label %20, label %22, !prof !13

20:                                               ; preds = %17
  %21 = add nsw i32 %18, -1
  store i32 %21, ptr %13, align 4, !tbaa !10
  br label %lean_dec.exit27

22:                                               ; preds = %17
  %.not.i = icmp eq i32 %18, 0
  br i1 %.not.i, label %lean_dec.exit27, label %23

23:                                               ; preds = %22
  tail call void @lean_dec_ref_cold(ptr noundef nonnull %13) #4
  br label %lean_dec.exit27

lean_dec.exit27:                                  ; preds = %23, %22, %20, %lean_inc.exit
  %24 = icmp eq i8 %14, 0
  br i1 %24, label %25, label %51

25:                                               ; preds = %lean_dec.exit27
  %26 = load ptr, ptr @l_Lean_moduleNameOfFileName___lambda__2___closed__1, align 8, !tbaa !4
  %27 = tail call ptr @lean_string_append(ptr noundef %26, ptr noundef %0) #4
  br i1 %.not, label %28, label %lean_dec.exit

28:                                               ; preds = %25
  %29 = load i32, ptr %0, align 4, !tbaa !10
  %30 = icmp sgt i32 %29, 1
  br i1 %30, label %31, label %33, !prof !13

31:                                               ; preds = %28
  %32 = add nsw i32 %29, -1
  store i32 %32, ptr %0, align 4, !tbaa !10
  br label %lean_dec.exit

33:                                               ; preds = %28
  %.not.i28 = icmp eq i32 %29, 0
  br i1 %.not.i28, label %lean_dec.exit, label %34

34:                                               ; preds = %33
  tail call void @lean_dec_ref_cold(ptr noundef nonnull %0) #4
  br label %lean_dec.exit

lean_dec.exit:                                    ; preds = %34, %33, %31, %25
  %35 = load ptr, ptr @l_Lean_moduleNameOfFileName___lambda__2___closed__2, align 8, !tbaa !4
  %36 = tail call ptr @lean_string_append(ptr noundef %27, ptr noundef %35) #4
  %37 = tail call ptr @lean_string_append(ptr noundef %36, ptr noundef %1) #4
  %38 = load ptr, ptr @l_Lean_moduleNameOfFileName___lambda__2___closed__3, align 8, !tbaa !4
  %39 = tail call ptr @lean_string_append(ptr noundef %37, ptr noundef %38) #4
  tail call void @lean_inc_heartbeat() #4
  %40 = tail call noalias ptr @mi_malloc_small(i64 noundef 16) #4
  %41 = icmp eq ptr %40, null
  br i1 %41, label %42, label %lean_alloc_ctor.exit

42:                                               ; preds = %lean_dec.exit
  tail call void @lean_internal_panic_out_of_memory() #5
  unreachable

lean_alloc_ctor.exit:                             ; preds = %lean_dec.exit
  %43 = getelementptr inbounds nuw i8, ptr %40, i64 4
  store i32 1, ptr %40, align 4, !tbaa !10
  store i32 302055440, ptr %43, align 4
  %44 = getelementptr inbounds nuw i8, ptr %40, i64 8
  store ptr %39, ptr %44, align 8, !tbaa !4
  tail call void @lean_inc_heartbeat() #4
  %45 = tail call noalias ptr @mi_malloc_small(i64 noundef 24) #4
  %46 = icmp eq ptr %45, null
  br i1 %46, label %47, label %lean_alloc_ctor.exit31

47:                                               ; preds = %lean_alloc_ctor.exit
  tail call void @lean_internal_panic_out_of_memory() #5
  unreachable

lean_alloc_ctor.exit31:                           ; preds = %lean_alloc_ctor.exit
  %48 = getelementptr inbounds nuw i8, ptr %45, i64 4
  store i32 1, ptr %45, align 4, !tbaa !10
  store i32 16908312, ptr %48, align 4
  %49 = getelementptr inbounds nuw i8, ptr %45, i64 8
  store ptr %40, ptr %49, align 8, !tbaa !4
  %50 = getelementptr inbounds nuw i8, ptr %45, i64 16
  store ptr %3, ptr %50, align 8, !tbaa !4
  br label %53

51:                                               ; preds = %lean_dec.exit27
  %52 = tail call ptr @l_Lean_moduleNameOfFileName___lambda__1(ptr noundef %1, ptr noundef %0, ptr nonnull poison, ptr noundef %3)
  br label %53

53:                                               ; preds = %51, %lean_alloc_ctor.exit31
  %.0 = phi ptr [ %45, %lean_alloc_ctor.exit31 ], [ %52, %51 ]
  ret ptr %.0
}